target datalayout = "e-m:e-p270:32:32-p271:32:32-p272:64:64-i64:64-i128:128-f80:128-n8:16:32:64-S128"
target triple = "x86_64-pc-linux-gnu"

%struct.H5RS_str_t = type { ptr, ptr, i64, i64, i8, i32 }

@H5RS_init_g = global i8 0, align 1
@H5_libterm_g = external global i8, align 1
@H5_H5RS_str_t_reg_free_list = internal global { i8, [3 x i8], i32, i32, [4 x i8], ptr, i64, ptr } { i8 0, [3 x i8] zeroinitializer, i32 0, i32 0, [4 x i8] zeroinitializer, ptr @.str.5, i64 40, ptr null }, align 8
@H5_str_buf_blk_free_list = internal global { i8, [3 x i8], i32, i32, [4 x i8], i64, ptr, ptr } { i8 0, [3 x i8] zeroinitializer, i32 0, i32 0, [4 x i8] zeroinitializer, i64 0, ptr @.str.7, ptr null }, align 8

; Function Attrs: nounwind uwtable
define i32 @H5RS_decr(ptr noundef %0) #0 {
  %2 = alloca ptr, align 8
  store ptr %0, ptr %2, align 8, !tbaa !8
  %3 = load i8, ptr @H5RS_init_g, align 1, !tbaa !10, !range !12, !noundef !13
  %4 = trunc i8 %3 to i1
  br i1 %4, label %9, label %5

5:                                                ; preds = %1
  %6 = load i8, ptr @H5_libterm_g, align 1, !tbaa !10, !range !12, !noundef !13
  %7 = trunc i8 %6 to i1
  %8 = xor i1 %7, true
  br label %9

9:                                                ; preds = %5, %1
  %10 = phi i1 [ true, %1 ], [ %8, %5 ]
  %11 = xor i1 %10, true
  %12 = xor i1 %11, true
  %13 = zext i1 %12 to i32
  %14 = sext i32 %13 to i64
  %15 = call i64 @llvm.expect.i64(i64 %14, i64 1)
  %16 = icmp ne i64 %15, 0
  br i1 %16, label %17, label %39

17:                                               ; preds = %9
  %18 = load ptr, ptr %2, align 8, !tbaa !8
  %19 = getelementptr inbounds nuw %struct.H5RS_str_t, ptr %18, i32 0, i32 5
  %20 = load i32, ptr %19, align 4, !tbaa !16
  %21 = add i32 %20, -1
  store i32 %21, ptr %19, align 4, !tbaa !16
  %22 = icmp eq i32 %21, 0
  br i1 %22, label %23, label %38

23:                                               ; preds = %17
  %24 = load ptr, ptr %2, align 8, !tbaa !8
  %25 = getelementptr inbounds nuw %struct.H5RS_str_t, ptr %24, i32 0, i32 4
  %26 = load i8, ptr %25, align 8, !tbaa !27, !range !12, !noundef !13
  %27 = trunc i8 %26 to i1
  br i1 %27, label %35, label %28

28:                                               ; preds = %23
  %29 = load ptr, ptr %2, align 8, !tbaa !8
  %30 = getelementptr inbounds nuw %struct.H5RS_str_t, ptr %29, i32 0, i32 0
  %31 = load ptr, ptr %30, align 8, !tbaa !23
  %32 = call ptr @H5FL_blk_free(ptr noundef @H5_str_buf_blk_free_list, ptr noundef %31)
  %33 = load ptr, ptr %2, align 8, !tbaa !8
  %34 = getelementptr inbounds nuw %struct.H5RS_str_t, ptr %33, i32 0, i32 0
  store ptr %32, ptr %34, align 8, !tbaa !23
  br label %35

35:                                               ; preds = %28, %23
  %36 = load ptr, ptr %2, align 8, !tbaa !8
  %37 = call ptr @H5FL_reg_free(ptr noundef @H5_H5RS_str_t_reg_free_list, ptr noundef %36)
  store ptr %37, ptr %2, align 8, !tbaa !8
  br label %38

38:                                               ; preds = %35, %17
  br label %39

39:                                               ; preds = %38, %9
  ret i32 0
}