; Function Attrs: nounwind uwtable
define noundef i32 @H5RS_decr(ptr noundef %0) local_unnamed_addr #0 {
  %2 = load i8, ptr @H5RS_init_g, align 1, !tbaa !3, !range !7, !noundef !8
  %3 = trunc nuw i8 %2 to i1
  %4 = load i8, ptr @H5_libterm_g, align 1, !range !7
  %5 = trunc nuw i8 %4 to i1
  %6 = xor i1 %5, true
  %7 = select i1 %3, i1 true, i1 %6
  br i1 %7, label %8, label %22, !prof !9

8:                                                ; preds = %1
  %9 = getelementptr inbounds nuw i8, ptr %0, i64 36
  %10 = load i32, ptr %9, align 4, !tbaa !24
  %11 = add i32 %10, -1
  store i32 %11, ptr %9, align 4, !tbaa !24
  %12 = icmp eq i32 %11, 0
  br i1 %12, label %13, label %22

13:                                               ; preds = %8
  %14 = getelementptr inbounds nuw i8, ptr %0, i64 32
  %15 = load i8, ptr %14, align 8, !tbaa !26, !range !7, !noundef !8
  %16 = trunc nuw i8 %15 to i1
  br i1 %16, label %20, label %17

17:                                               ; preds = %13
  %18 = load ptr, ptr %0, align 8, !tbaa !20
  %19 = tail call ptr @H5FL_blk_free(ptr noundef nonnull @H5_str_buf_blk_free_list, ptr noundef %18) #11
  store ptr %19, ptr %0, align 8, !tbaa !20
  br label %20

20:                                               ; preds = %17, %13
  %21 = tail call ptr @H5FL_reg_free(ptr noundef nonnull @H5_H5RS_str_t_reg_free_list, ptr noundef nonnull %0) #11
  br label %22

22:                                               ; preds = %8, %20, %1
  ret i32 0
}